; ModuleID = '22/1034.c'
source_filename = "22/1034.c"
target datalayout = "e-m:e-p270:32:32-p271:32:32-p272:64:64-i64:64-f80:128-n8:16:32:64-S128"
target triple = "x86_64-pc-linux-gnu"

@.str = private unnamed_addr constant [5 x i8] c"%d%c\00", align 1
@.str.1 = private unnamed_addr constant [4 x i8] c"No\0A\00", align 1
@.str.2 = private unnamed_addr constant [4 x i8] c"%d\0A\00", align 1

; Function Attrs: noinline nounwind uwtable
define dso_local i32 @main() #0 {
  %1 = alloca i32, align 4
  %2 = alloca [301 x i32], align 16
  %3 = alloca i32, align 4
  %4 = alloca i32, align 4
  %5 = alloca i32, align 4
  %6 = alloca i32, align 4
  %7 = alloca i8, align 1
  store i32 0, i32* %1, align 4
  store i32 -1, i32* %6, align 4
  store i32 1, i32* %3, align 4
  br label %8

8:                                                ; preds = %21, %0
  %9 = load i32, i32* %3, align 4
  %10 = icmp sle i32 %9, 300
  br i1 %10, label %11, label %24

11:                                               ; preds = %8
  %12 = load i32, i32* %3, align 4
  %13 = sext i32 %12 to i64
  %14 = getelementptr inbounds [301 x i32], [301 x i32]* %2, i64 0, i64 %13
  %15 = call i32 (i8*, ...) @__isoc99_scanf(i8* getelementptr inbounds ([5 x i8], [5 x i8]* @.str, i64 0, i64 0), i32* %14, i8* %7)
  %16 = load i8, i8* %7, align 1
  %17 = sext i8 %16 to i32
  %18 = icmp eq i32 %17, 10
  br i1 %18, label %19, label %20

19:                                               ; preds = %11
  br label %24

20:                                               ; preds = %11
  br label %21

21:                                               ; preds = %20
  %22 = load i32, i32* %3, align 4
  %23 = add nsw i32 %22, 1
  store i32 %23, i32* %3, align 4
  br label %8

24:                                               ; preds = %19, %8
  %25 = load i32, i32* %3, align 4
  store i32 %25, i32* %4, align 4
  %26 = getelementptr inbounds [301 x i32], [301 x i32]* %2, i64 0, i64 1
  %27 = load i32, i32* %26, align 4
  store i32 %27, i32* %5, align 4
  store i32 2, i32* %3, align 4
  br label %28

28:                                               ; preds = %66, %24
  %29 = load i32, i32* %3, align 4
  %30 = load i32, i32* %4, align 4
  %31 = icmp sle i32 %29, %30
  br i1 %31, label %32, label %69

32:                                               ; preds = %28
  %33 = load i32, i32* %5, align 4
  %34 = load i32, i32* %3, align 4
  %35 = sext i32 %34 to i64
  %36 = getelementptr inbounds [301 x i32], [301 x i32]* %2, i64 0, i64 %35
  %37 = load i32, i32* %36, align 4
  %38 = icmp slt i32 %33, %37
  br i1 %38, label %39, label %45

39:                                               ; preds = %32
  %40 = load i32, i32* %5, align 4
  store i32 %40, i32* %6, align 4
  %41 = load i32, i32* %3, align 4
  %42 = sext i32 %41 to i64
  %43 = getelementptr inbounds [301 x i32], [301 x i32]* %2, i64 0, i64 %42
  %44 = load i32, i32* %43, align 4
  store i32 %44, i32* %5, align 4
  br label %65

45:                                               ; preds = %32
  %46 = load i32, i32* %6, align 4
  %47 = load i32, i32* %3, align 4
  %48 = sext i32 %47 to i64
  %49 = getelementptr inbounds [301 x i32], [301 x i32]* %2, i64 0, i64 %48
  %50 = load i32, i32* %49, align 4
  %51 = icmp slt i32 %46, %50
  br i1 %51, label %52, label %64

52:                                               ; preds = %45
  %53 = load i32, i32* %3, align 4
  %54 = sext i32 %53 to i64
  %55 = getelementptr inbounds [301 x i32], [301 x i32]* %2, i64 0, i64 %54
  %56 = load i32, i32* %55, align 4
  %57 = load i32, i32* %5, align 4
  %58 = icmp slt i32 %56, %57
  br i1 %58, label %59, label %64

59:                                               ; preds = %52
  %60 = load i32, i32* %3, align 4
  %61 = sext i32 %60 to i64
  %62 = getelementptr inbounds [301 x i32], [301 x i32]* %2, i64 0, i64 %61
  %63 = load i32, i32* %62, align 4
  store i32 %63, i32* %6, align 4
  br label %64

64:                                               ; preds = %59, %52, %45
  br label %65

65:                                               ; preds = %64, %39
  br label %66

66:                                               ; preds = %65
  %67 = load i32, i32* %3, align 4
  %68 = add nsw i32 %67, 1
  store i32 %68, i32* %3, align 4
  br label %28

69:                                               ; preds = %28
  %70 = load i32, i32* %4, align 4
  %71 = icmp eq i32 %70, 1
  br i1 %71, label %75, label %72

72:                                               ; preds = %69
  %73 = load i32, i32* %6, align 4
  %74 = icmp eq i32 %73, -1
  br i1 %74, label %75, label %77

75:                                               ; preds = %72, %69
  %76 = call i32 (i8*, ...) @printf(i8* getelementptr inbounds ([4 x i8], [4 x i8]* @.str.1, i64 0, i64 0))
  br label %80

77:                                               ; preds = %72
  %78 = load i32, i32* %6, align 4
  %79 = call i32 (i8*, ...) @printf(i8* getelementptr inbounds ([4 x i8], [4 x i8]* @.str.2, i64 0, i64 0), i32 %78)
  br label %80

80:                                               ; preds = %77, %75
  ret i32 0
}

declare dso_local i32 @__isoc99_scanf(i8*, ...) #1

declare dso_local i32 @printf(i8*, ...) #1


!llvm.module.flags = !{!0}
!llvm.ident = !{!1}

!0 = !{i32 1, !"wchar_size", i32 4}
!1 = !{!"clang version 10.0.0-4ubuntu1 "}
